target datalayout = "e-m:e-p270:32:32-p271:32:32-p272:64:64-i64:64-i128:128-f80:128-n8:16:32:64-S128"
target triple = "x86_64-pc-linux-gnu"

%struct.AVCodecContext = type { ptr, i32, i32, ptr, i32, i32, ptr, ptr, ptr, i64, i32, i32, ptr, i32, %struct.AVRational, %struct.AVRational, %struct.AVRational, i32, i32, i32, i32, i32, %struct.AVRational, i32, i32, i32, i32, i32, i32, i32, i32, i32, i32, i32, ptr, ptr, i32, float, float, float, float, float, float, float, float, float, i32, i32, i32, i32, i32, i32, i32, i32, i32, i32, i32, i32, ptr, ptr, ptr, i32, i32, i32, i32, i32, i32, i32, i32, i32, i32, %struct.AVChannelLayout, i32, i32, i32, i32, i32, i32, i32, i32, ptr, i32, i32, i32, float, float, i32, i32, i32, i32, i32, ptr, i64, i64, float, float, i32, i32, ptr, ptr, i32, i32, i32, i32, i32, ptr, ptr, ptr, ptr, i32, i32, [8 x i64], i32, i32, i32, i32, i32, i32, i32, ptr, ptr, i32, i32, i32, i32, i32, i32, i32, i32, i32, i32, ptr, ptr, i32, i32, ptr, ptr, ptr, ptr, i32, i32, i64, i32, i32, i64, ptr, i64, ptr, i32, ptr, i32 }
%struct.AVRational = type { i32, i32 }
%struct.AVChannelLayout = type { i32, i32, %union.anon.0, ptr }
%union.anon.0 = type { i64 }
%struct.SCPRContext = type { i32, ptr, ptr, %struct.GetByteContext, %struct.RangeCoder, [3 x [4096 x %struct.PixelModel]], [6 x [7 x i32]], [6 x [257 x i32]], [257 x i32], [257 x i32], [6 x i32], [4 x [17 x i32]], [2 x [513 x i32]], i32, i32, i32, ptr, i32, i32, [3 x [4096 x %struct.PixelModel3]], [6 x %struct.RunModel3], %struct.RunModel3, %struct.RunModel3, %struct.FillModel3, [4 x %struct.SxyModel3], [2 x %struct.MVModel3], [6 x %struct.OpModel3], ptr, ptr }
%struct.GetByteContext = type { ptr, ptr, ptr }
%struct.RangeCoder = type { i32, i32, i32 }
%struct.PixelModel = type { [256 x i32], [16 x i32], i32 }
%struct.PixelModel3 = type { i8, i8, i8, i8, i16, i32, [256 x i8], [256 x i16], [256 x i16], [256 x i16], [32 x i8] }
%struct.RunModel3 = type { i32, [2 x [256 x i16]], [256 x i16], [32 x i8] }
%struct.FillModel3 = type { i32, [2 x [5 x i16]], [5 x i16], [32 x i8] }
%struct.SxyModel3 = type { i32, [2 x [16 x i16]], [16 x i16], [32 x i8] }
%struct.MVModel3 = type { i32, [2 x [512 x i16]], [512 x i16], [32 x i8] }
%struct.OpModel3 = type { i32, [2 x [6 x i16]], [6 x i16], [32 x i8] }

; Function Attrs: cold nounwind optsize uwtable
define internal i32 @decode_close(ptr noundef %0) #0 {
  %2 = alloca ptr, align 8
  %3 = alloca ptr, align 8
  store ptr %0, ptr %2, align 8, !tbaa !4
  call void @llvm.lifetime.start.p0(i64 8, ptr %3) #9
  %4 = load ptr, ptr %2, align 8, !tbaa !4
  %5 = getelementptr inbounds nuw %struct.AVCodecContext, ptr %4, i32 0, i32 6
  %6 = load ptr, ptr %5, align 8, !tbaa !9
  store ptr %6, ptr %3, align 8, !tbaa !29
  %7 = load ptr, ptr %3, align 8, !tbaa !29
  %8 = getelementptr inbounds nuw %struct.SCPRContext, ptr %7, i32 0, i32 16
  call void @av_freep(ptr noundef %8)
  %9 = load ptr, ptr %3, align 8, !tbaa !29
  %10 = getelementptr inbounds nuw %struct.SCPRContext, ptr %9, i32 0, i32 1
  call void @av_frame_free(ptr noundef %10)
  %11 = load ptr, ptr %3, align 8, !tbaa !29
  %12 = getelementptr inbounds nuw %struct.SCPRContext, ptr %11, i32 0, i32 2
  call void @av_frame_free(ptr noundef %12)
  call void @llvm.lifetime.end.p0(i64 8, ptr %3) #9
  ret i32 0
}